Certificate:
    Data:
        Version: 3 (0x2)
        Serial Number:
            4c:78:16:e0:ac:8f:0f:d0:85:70:88:14:b4:79:64:01:21:89:08:45
        Signature Algorithm: sha256WithRSAEncryption
        Issuer: C=DE, ST=Neukirchen, O=ASNeG, OU=ASNeG CA, CN=ASNeG CA
        Validity
            Not Before: Aug 13 12:57:37 2020 GMT
            Not After : Aug 11 12:57:37 2030 GMT
        Subject: C=DE, ST=Neukirchen, O=ASNeG, OU=ASNeG CA, CN=ASNeG CA
        Subject Public Key Info:
            Public Key Algorithm: rsaEncryption
                RSA Public-Key: (2048 bit)
                Modulus:
                    00:c2:9b:16:4e:82:0a:0d:a6:17:62:06:15:4b:ee:
                    f4:22:3a:3a:0d:c0:26:99:f8:00:a6:91:37:02:6b:
                    35:c6:38:de:aa:c1:cb:b2:47:17:1a:df:2e:ce:b8:
                    ba:02:9f:9a:68:a2:42:7a:23:e8:b4:f1:7e:e8:a2:
                    f1:e0:5d:c6:64:85:92:fa:24:56:91:b0:e0:c2:10:
                    9b:ee:0c:e8:72:a6:c2:4f:31:b4:06:a6:3a:f4:0b:
                    59:47:67:4e:cd:28:a2:bd:25:1a:0f:e4:4a:c5:0a:
                    c2:80:6e:80:c3:64:11:40:21:66:cb:b8:12:3b:cc:
                    82:a8:c1:8a:98:90:f0:17:d7:e0:4a:67:03:30:3e:
                    9b:23:4a:dc:a7:cd:d7:13:97:a9:41:6d:a3:0d:40:
                    8d:c1:0a:4b:e5:bc:43:e3:9b:c1:a4:c0:94:04:0c:
                    ef:26:39:43:a6:87:25:42:3f:05:83:7d:a1:05:2b:
                    2c:9b:8f:81:34:73:f6:63:22:e0:23:81:73:23:e3:
                    31:c9:39:49:fb:47:08:47:75:72:24:49:11:f1:e6:
                    56:b9:92:5e:c6:b6:3e:e6:ce:0e:19:7d:b0:bf:e8:
                    0a:c5:9c:0c:9a:9b:32:ee:1f:f9:4b:02:2c:68:f2:
                    fd:e7:c2:0e:2d:7c:3d:8c:d7:ac:4e:26:10:9c:27:
                    eb:ed
                Exponent: 65537 (0x10001)
        X509v3 extensions:
            Netscape Comment: 
                CA certificate generated with ASNeG OpcUaStack using OpenSSL
            X509v3 Key Usage: critical
                Digital Signature, Non Repudiation, Key Encipherment, Certificate Sign, CRL Sign
            X509v3 Subject Key Identifier: 
                77:48:56:4A:92:DA:40:C0:23:20:A6:27:2A:B1:1C:90:C9:E7:7E:8F
            X509v3 Authority Key Identifier: 
                keyid:77:48:56:4A:92:DA:40:C0:23:20:A6:27:2A:B1:1C:90:C9:E7:7E:8F

            X509v3 Basic Constraints: critical
                CA:TRUE
    Signature Algorithm: sha256WithRSAEncryption
         00:1a:9f:7a:02:bf:00:c7:ec:f6:46:bf:bb:53:c5:7b:2d:af:
         b3:e3:31:9b:59:36:f7:e1:3e:1a:46:54:00:09:18:e0:1a:3a:
         78:d5:9d:22:5b:09:3d:31:23:0c:9e:15:f3:bd:6b:80:5d:e6:
         95:a6:42:a0:d0:77:c0:18:99:99:2f:08:61:e4:49:3a:04:7b:
         69:e8:cb:6f:92:b1:18:38:8c:a5:74:ed:2f:8c:43:34:e8:30:
         cd:9c:b3:b3:15:52:fc:48:9d:a5:c3:e3:13:73:02:88:ff:15:
         df:c5:31:68:b5:a9:51:1e:a6:92:c0:7d:c9:e0:1f:8a:4d:d2:
         0d:bd:1a:d9:50:b3:f0:51:92:42:16:0b:06:20:fb:7a:c0:82:
         fe:14:ef:62:84:8f:c8:b3:7c:7e:f9:79:78:b4:de:92:a8:7c:
         21:7a:54:ed:52:05:7e:ef:96:f3:c4:62:ac:99:7f:a1:d3:15:
         c5:ea:32:da:cd:58:9a:9b:0e:44:23:bc:90:24:f9:0b:15:65:
         4b:e5:f0:c1:7a:2d:60:31:b3:85:de:0b:5c:03:36:57:32:50:
         3b:09:ce:7b:3c:0a:46:d4:da:e4:c1:c9:70:55:36:5b:60:b5:
         09:a5:d0:ec:8f:c7:45:f2:96:ff:a0:b1:38:da:11:b5:1d:98:
         3e:93:3f:2b
-----BEGIN CERTIFICATE-----
MIID8DCCAtigAwIBAgIUTHgW4KyPD9CFcIgUtHlkASGJCEUwDQYJKoZIhvcNAQEL
BQAwWDELMAkGA1UEBhMCREUxEzARBgNVBAgMCk5ldWtpcmNoZW4xDjAMBgNVBAoM
BUFTTmVHMREwDwYDVQQLDAhBU05lRyBDQTERMA8GA1UEAwwIQVNOZUcgQ0EwHhcN
MjAwODEzMTI1NzM3WhcNMzAwODExMTI1NzM3WjBYMQswCQYDVQQGEwJERTETMBEG
A1UECAwKTmV1a2lyY2hlbjEOMAwGA1UECgwFQVNOZUcxETAPBgNVBAsMCEFTTmVH
IENBMREwDwYDVQQDDAhBU05lRyBDQTCCASIwDQYJKoZIhvcNAQEBBQADggEPADCC
AQoCggEBAMKbFk6CCg2mF2IGFUvu9CI6Og3AJpn4AKaRNwJrNcY43qrBy7JHFxrf
Ls64ugKfmmiiQnoj6LTxfuii8eBdxmSFkvokVpGw4MIQm+4M6HKmwk8xtAamOvQL
WUdnTs0oor0lGg/kSsUKwoBugMNkEUAhZsu4EjvMgqjBipiQ8BfX4EpnAzA+myNK
3KfN1xOXqUFtow1AjcEKS+W8Q+ObwaTAlAQM7yY5Q6aHJUI/BYN9oQUrLJuPgTRz
9mMi4COBcyPjMck5SftHCEd1ciRJEfHmVrmSXsa2PubODhl9sL/oCsWcDJqbMu4f
+UsCLGjy/efCDi18PYzXrE4mEJwn6+0CAwEAAaOBsTCBrjBLBglghkgBhvhCAQ0E
PhY8Q0EgY2VydGlmaWNhdGUgZ2VuZXJhdGVkIHdpdGggQVNOZUcgT3BjVWFTdGFj
ayB1c2luZyBPcGVuU1NMMA4GA1UdDwEB/wQEAwIB5jAdBgNVHQ4EFgQUd0hWSpLa
QMAjIKYnKrEckMnnfo8wHwYDVR0jBBgwFoAUd0hWSpLaQMAjIKYnKrEckMnnfo8w
DwYDVR0TAQH/BAUwAwEB/zANBgkqhkiG9w0BAQsFAAOCAQEAABqfegK/AMfs9ka/
u1PFey2vs+Mxm1k29+E+GkZUAAkY4Bo6eNWdIlsJPTEjDJ4V871rgF3mlaZCoNB3
wBiZmS8IYeRJOgR7aejLb5KxGDiMpXTtL4xDNOgwzZyzsxVS/EidpcPjE3MCiP8V
38UxaLWpUR6mksB9yeAfik3SDb0a2VCz8FGSQhYLBiD7esCC/hTvYoSPyLN8fvl5
eLTekqh8IXpU7VIFfu+W88RirJl/odMVxeoy2s1YmpsORCO8kCT5CxVlS+XwwXot
YDGzhd4LXAM2VzJQOwnOezwKRtTa5MHJcFU2W2C1CaXQ7I/HRfKW/6CxONoRtR2Y
PpM/Kw==
-----END CERTIFICATE-----
