Certificate:
    Data:
        Version: 3 (0x2)
        Serial Number:
            0a:29:10:01:05:32:35:8e:b1:7a:f2:8f:e3:08:8b:60:2a:5d:a1:71
        Signature Algorithm: sha256WithRSAEncryption
        Issuer: C=DE, ST=Neukirchen, O=ASNeG, OU=ASNeG CA, CN=ASNeG CA
        Validity
            Not Before: Jun  6 09:35:16 2020 GMT
            Not After : Jun  4 09:35:16 2030 GMT
        Subject: C=DE, ST=Neukirchen, O=ASNeG, OU=ASNeG CA, CN=ASNeG CA
        Subject Public Key Info:
            Public Key Algorithm: rsaEncryption
                RSA Public-Key: (2048 bit)
                Modulus:
                    00:d3:04:22:c7:cb:63:97:29:5c:e2:5a:59:f4:fd:
                    4c:29:67:60:89:9c:8f:2e:fd:1e:e2:61:de:65:0f:
                    ce:d8:bc:9e:82:6b:f8:b7:02:e9:e2:46:cc:3e:f5:
                    d0:c2:67:67:af:9e:ae:0d:f6:1b:f4:27:9a:79:0e:
                    9d:4b:43:84:ed:11:75:f3:4f:f5:6f:5d:4e:46:e7:
                    ae:03:c2:d7:94:95:5d:be:c7:81:9f:bf:b7:54:ec:
                    22:5d:f1:52:4e:a1:b5:9f:c1:bd:15:8c:eb:1b:97:
                    a7:a3:42:19:1a:13:37:77:5d:cf:78:7d:c1:12:b2:
                    7d:a0:b9:fc:6e:13:08:77:15:0a:74:59:79:75:c9:
                    bb:1f:d0:52:18:bf:95:7a:d0:13:ae:54:e4:40:c8:
                    db:35:5f:74:67:3f:a5:02:9a:72:6f:0b:b2:80:f6:
                    ca:2b:23:a7:4e:36:d4:4f:5f:be:8d:9f:33:8e:d5:
                    0e:26:56:81:c6:d3:4f:d4:46:39:88:71:3c:9b:74:
                    16:01:90:f4:a7:e7:6c:53:90:ee:17:84:dc:b8:06:
                    e0:cf:bb:2f:3f:62:37:78:af:9c:b7:b2:05:85:f8:
                    25:89:a6:a7:c7:c8:e2:79:ed:58:48:9a:66:cf:7d:
                    df:2d:da:47:39:e6:e8:54:a6:e9:1f:d4:13:ec:10:
                    a1:b5
                Exponent: 65537 (0x10001)
        X509v3 extensions:
            X509v3 Subject Key Identifier: 
                45:45:23:A2:7F:6D:A1:06:38:E3:86:D3:7E:49:37:E0:8B:C1:92:E1
            X509v3 Authority Key Identifier: 
                keyid:45:45:23:A2:7F:6D:A1:06:38:E3:86:D3:7E:49:37:E0:8B:C1:92:E1

            X509v3 Basic Constraints: critical
                CA:TRUE
    Signature Algorithm: sha256WithRSAEncryption
         12:32:73:36:df:ed:48:0d:11:6c:ca:3a:26:eb:36:c0:59:f4:
         59:aa:55:5a:da:82:e5:4c:5b:c6:0b:63:08:d7:0c:31:85:1c:
         75:65:f9:b3:8f:11:16:d3:c9:62:22:86:68:7f:ab:3c:af:41:
         7c:2a:97:8c:95:3a:cb:14:8b:90:6f:ff:6a:53:64:26:81:37:
         c8:2b:a4:44:8a:62:e8:da:fd:18:7d:b5:3f:89:0e:a0:54:b2:
         39:19:89:cb:16:29:7e:27:d7:1e:18:03:5c:5e:d1:f5:b2:4e:
         5e:0d:53:d2:83:4d:49:32:51:4a:8e:9a:2a:01:4a:44:bf:3b:
         6e:3b:ff:33:61:46:80:f0:70:55:8b:c0:ea:47:6f:7b:2c:d8:
         13:e3:96:52:90:b1:1a:56:3d:7c:93:00:eb:65:99:8f:9a:e5:
         74:93:d0:ca:a7:70:ed:be:6e:d3:9b:a6:fe:78:9c:87:d3:5e:
         02:46:46:98:68:ae:1e:ca:b3:b2:3e:30:61:a0:95:4f:63:a8:
         13:e1:a2:d6:47:19:86:60:ac:63:08:e5:81:07:01:5d:0e:13:
         10:43:a8:4f:8e:f8:42:23:bd:8a:14:b5:33:36:0a:32:54:7b:
         02:bc:4e:84:40:c7:5d:cc:30:4e:06:b2:a2:3b:bf:f9:3a:3e:
         7b:5d:31:5b
-----BEGIN CERTIFICATE-----
MIIDkTCCAnmgAwIBAgIUCikQAQUyNY6xevKP4wiLYCpdoXEwDQYJKoZIhvcNAQEL
BQAwWDELMAkGA1UEBhMCREUxEzARBgNVBAgMCk5ldWtpcmNoZW4xDjAMBgNVBAoM
BUFTTmVHMREwDwYDVQQLDAhBU05lRyBDQTERMA8GA1UEAwwIQVNOZUcgQ0EwHhcN
MjAwNjA2MDkzNTE2WhcNMzAwNjA0MDkzNTE2WjBYMQswCQYDVQQGEwJERTETMBEG
A1UECAwKTmV1a2lyY2hlbjEOMAwGA1UECgwFQVNOZUcxETAPBgNVBAsMCEFTTmVH
IENBMREwDwYDVQQDDAhBU05lRyBDQTCCASIwDQYJKoZIhvcNAQEBBQADggEPADCC
AQoCggEBANMEIsfLY5cpXOJaWfT9TClnYImcjy79HuJh3mUPzti8noJr+LcC6eJG
zD710MJnZ6+erg32G/QnmnkOnUtDhO0RdfNP9W9dTkbnrgPC15SVXb7HgZ+/t1Ts
Il3xUk6htZ/BvRWM6xuXp6NCGRoTN3ddz3h9wRKyfaC5/G4TCHcVCnRZeXXJux/Q
Uhi/lXrQE65U5EDI2zVfdGc/pQKacm8LsoD2yisjp0421E9fvo2fM47VDiZWgcbT
T9RGOYhxPJt0FgGQ9KfnbFOQ7heE3LgG4M+7Lz9iN3ivnLeyBYX4JYmmp8fI4nnt
WEiaZs993y3aRznm6FSm6R/UE+wQobUCAwEAAaNTMFEwHQYDVR0OBBYEFEVFI6J/
baEGOOOG035JN+CLwZLhMB8GA1UdIwQYMBaAFEVFI6J/baEGOOOG035JN+CLwZLh
MA8GA1UdEwEB/wQFMAMBAf8wDQYJKoZIhvcNAQELBQADggEBABIyczbf7UgNEWzK
OibrNsBZ9FmqVVraguVMW8YLYwjXDDGFHHVl+bOPERbTyWIihmh/qzyvQXwql4yV
OssUi5Bv/2pTZCaBN8grpESKYuja/Rh9tT+JDqBUsjkZicsWKX4n1x4YA1xe0fWy
Tl4NU9KDTUkyUUqOmioBSkS/O247/zNhRoDwcFWLwOpHb3ss2BPjllKQsRpWPXyT
AOtlmY+a5XST0MqncO2+btObpv54nIfTXgJGRphorh7Ks7I+MGGglU9jqBPhotZH
GYZgrGMI5YEHAV0OExBDqE+O+EIjvYoUtTM2CjJUewK8ToRAx13MME4GsqI7v/k6
PntdMVs=
-----END CERTIFICATE-----
