Certificate:
    Data:
        Version: 3 (0x2)
        Serial Number: 1 (0x1)
    Signature Algorithm: sha1WithRSAEncryption
        Issuer: C=DE, ST=Lower Saxony, O=Baker Hughes, OU=Drilling Systems Automation, CN=AggregationServer, L=Celle, DC=siemens-ipc
        Validity
            Not Before: Feb 25 14:33:47 2016 GMT
            Not After : Feb 24 15:33:47 2019 GMT
        Subject: C=DE, ST=Lower Saxony, O=Baker Hughes, OU=Drilling Systems Automation, CN=AggregationServer, L=Celle, DC=siemens-ipc
        Subject Public Key Info:
            Public Key Algorithm: rsaEncryption
                Public-Key: (2048 bit)
                Modulus:
                    00:be:5b:05:67:85:a9:97:02:f9:ed:e8:2e:08:40:
                    f7:2b:15:3e:65:36:cd:49:3c:b7:7c:60:76:15:28:
                    31:fa:16:51:ed:64:d0:10:ea:15:c1:cc:69:7c:65:
                    15:00:d4:02:d5:34:57:0d:bf:a6:a0:0d:92:c6:fd:
                    68:32:bb:e3:69:e4:51:5e:73:d8:cb:fd:3e:d3:71:
                    25:e0:aa:e8:de:9c:bf:8a:07:99:1a:57:df:81:8b:
                    9e:50:10:ca:68:fb:4a:4e:f4:12:2e:4b:28:ae:b6:
                    38:24:db:ad:8f:8a:e6:19:a3:bd:ac:eb:b4:9e:58:
                    1e:26:e7:04:bc:63:5f:d3:f0:2d:20:42:fa:4b:8c:
                    2b:63:22:5e:1e:ec:97:f7:ca:cc:74:52:49:92:3c:
                    ea:2e:2c:d8:eb:55:51:68:d1:14:df:fb:7d:c9:88:
                    9d:26:b2:08:87:d2:28:da:53:2c:ef:3f:fb:fc:ca:
                    94:02:8e:fd:40:f0:76:ab:2f:c7:71:fc:67:97:3c:
                    bf:57:45:a6:43:4f:71:17:b7:69:65:46:07:51:58:
                    ac:ee:95:e5:5b:40:23:7c:81:8b:c4:b7:16:29:0c:
                    3d:08:44:2c:bd:0a:2f:ad:90:c9:f8:87:19:c6:0a:
                    6b:bd:df:ef:81:c8:b0:9a:a3:5b:92:23:f5:c2:f8:
                    70:ab
                Exponent: 65537 (0x10001)
        X509v3 extensions:
            Netscape Comment: 
                OpenSSL Generated Certificate
            X509v3 Subject Key Identifier: 
                06:7D:C3:F7:D1:95:AC:3B:E0:60:51:C8:57:21:E7:54:FC:26:2C:45
            X509v3 Authority Key Identifier: 
                keyid:06:7D:C3:F7:D1:95:AC:3B:E0:60:51:C8:57:21:E7:54:FC:26:2C:45

            X509v3 Subject Alternative Name: 
                URI:urn:BakerHughes:AggregationServer:N39541, DNS:siemens-ipc
            X509v3 Basic Constraints: 
                CA:FALSE
            X509v3 Key Usage: 
                Digital Signature, Non Repudiation, Key Encipherment, Data Encipherment, Certificate Sign
            X509v3 Extended Key Usage: 
                TLS Web Server Authentication, TLS Web Client Authentication
    Signature Algorithm: sha1WithRSAEncryption
         4c:41:df:02:93:df:17:56:c4:3b:f2:7c:63:1d:99:f3:80:ff:
         f8:7e:d4:42:91:15:40:42:9c:78:90:01:00:89:63:b7:3c:d9:
         25:24:93:d5:95:f4:b8:2c:18:12:4e:6a:1d:aa:a1:2a:08:23:
         c7:64:a6:e5:4e:90:23:fd:be:ef:fd:a6:25:1d:b4:3f:3f:77:
         1d:09:b1:9b:75:a9:21:f1:12:51:ed:ff:8e:fe:17:ab:65:35:
         1e:b0:04:55:4b:bc:89:6f:78:ba:81:f5:a9:41:4e:5a:65:d2:
         26:11:c5:eb:b4:2b:f4:c4:ce:68:37:26:4c:e2:b8:b2:11:cd:
         72:d6:18:f6:10:ce:b1:0a:e6:e7:46:e8:d0:ff:6a:06:ca:28:
         48:03:2a:8f:aa:b0:4f:55:cd:9e:89:a5:d8:c8:1b:8b:78:2b:
         c0:5a:16:11:f5:66:79:0e:2e:fe:b3:30:97:6c:39:5e:ce:f0:
         7f:57:87:1f:e1:3c:df:e6:30:7b:2e:df:13:28:74:77:fe:62:
         53:df:1a:7e:a1:2e:4f:85:4f:79:6f:da:d8:35:0e:69:a4:38:
         18:6d:75:87:80:58:6d:3b:bc:80:45:4e:aa:41:43:e9:f3:cf:
         03:8b:db:a8:dc:c0:66:ec:87:b1:9e:5d:8a:10:8d:8c:20:5c:
         b1:90:e2:c7
-----BEGIN CERTIFICATE-----
MIIEvDCCA6SgAwIBAgIBATANBgkqhkiG9w0BAQUFADCBqjELMAkGA1UEBhMCREUx
FTATBgNVBAgTDExvd2VyIFNheG9ueTEVMBMGA1UEChMMQmFrZXIgSHVnaGVzMSQw
IgYDVQQLExtEcmlsbGluZyBTeXN0ZW1zIEF1dG9tYXRpb24xGjAYBgNVBAMTEUFn
Z3JlZ2F0aW9uU2VydmVyMQ4wDAYDVQQHEwVDZWxsZTEbMBkGCgmSJomT8ixkARkW
C3NpZW1lbnMtaXBjMB4XDTE2MDIyNTE0MzM0N1oXDTE5MDIyNDE1MzM0N1owgaox
CzAJBgNVBAYTAkRFMRUwEwYDVQQIEwxMb3dlciBTYXhvbnkxFTATBgNVBAoTDEJh
a2VyIEh1Z2hlczEkMCIGA1UECxMbRHJpbGxpbmcgU3lzdGVtcyBBdXRvbWF0aW9u
MRowGAYDVQQDExFBZ2dyZWdhdGlvblNlcnZlcjEOMAwGA1UEBxMFQ2VsbGUxGzAZ
BgoJkiaJk/IsZAEZFgtzaWVtZW5zLWlwYzCCASIwDQYJKoZIhvcNAQEBBQADggEP
ADCCAQoCggEBAL5bBWeFqZcC+e3oLghA9ysVPmU2zUk8t3xgdhUoMfoWUe1k0BDq
FcHMaXxlFQDUAtU0Vw2/pqANksb9aDK742nkUV5z2Mv9PtNxJeCq6N6cv4oHmRpX
34GLnlAQymj7Sk70Ei5LKK62OCTbrY+K5hmjvazrtJ5YHibnBLxjX9PwLSBC+kuM
K2MiXh7sl/fKzHRSSZI86i4s2OtVUWjRFN/7fcmInSayCIfSKNpTLO8/+/zKlAKO
/UDwdqsvx3H8Z5c8v1dFpkNPcRe3aWVGB1FYrO6V5VtAI3yBi8S3FikMPQhELL0K
L62QyfiHGcYKa73f74HIsJqjW5Ij9cL4cKsCAwEAAaOB6jCB5zAsBglghkgBhvhC
AQ0EHxYdT3BlblNTTCBHZW5lcmF0ZWQgQ2VydGlmaWNhdGUwHQYDVR0OBBYEFAZ9
w/fRlaw74GBRyFch51T8JixFMB8GA1UdIwQYMBaAFAZ9w/fRlaw74GBRyFch51T8
JixFMEAGA1UdEQQ5MDeGKHVybjpCYWtlckh1Z2hlczpBZ2dyZWdhdGlvblNlcnZl
cjpOMzk1NDGCC3NpZW1lbnMtaXBjMAkGA1UdEwQCMAAwCwYDVR0PBAQDAgL0MB0G
A1UdJQQWMBQGCCsGAQUFBwMBBggrBgEFBQcDAjANBgkqhkiG9w0BAQUFAAOCAQEA
TEHfApPfF1bEO/J8Yx2Z84D/+H7UQpEVQEKceJABAIljtzzZJSST1ZX0uCwYEk5q
HaqhKggjx2Sm5U6QI/2+7/2mJR20Pz93HQmxm3WpIfESUe3/jv4Xq2U1HrAEVUu8
iW94uoH1qUFOWmXSJhHF67Qr9MTOaDcmTOK4shHNctYY9hDOsQrm50bo0P9qBsoo
SAMqj6qwT1XNnoml2Mgbi3grwFoWEfVmeQ4u/rMwl2w5Xs7wf1eHH+E83+Ywey7f
Eyh0d/5iU98afqEuT4VPeW/a2DUOaaQ4GG11h4BYbTu8gEVOqkFD6fPPA4vbqNzA
ZuyHsZ5dihCNjCBcsZDixw==
-----END CERTIFICATE-----
